(lp0
(lp1
(lp2
(lp3
(lp4
F-1.239047432510387
aF-0.6113191054024177
aF-1.6334673670492434
aa(lp5
F-0.6476237287260972
aF-0.606420937066661
aF-1.2058996550032801
aa(lp6
F-0.5897206119726179
aF-0.2485843606940728
aF-0.92621339490549
aa(lp7
F-0.42256137886761586
aF-0.3730908297458008
aF-0.6303763883648156
aa(lp8
F-1.0823777184565084
aF-0.6045859244524604
aF-1.2274296857183284
aa(lp9
F-1.2122192737852333
aF-0.6920166614496885
aF-1.3923391160205194
aa(lp10
F-1.2493251248934087
aF-0.7850078897867825
aF-1.3270326307410953
aa(lp11
F-1.1670745785419738
aF-0.7467318472179315
aF-1.289605567044782
aa(lp12
F-1.100274878717308
aF-0.7099835147645533
aF-1.4833721674836382
aa(lp13
F-0.8831259742981562
aF-0.7844192774434846
aF-1.5103730780945919
aa(lp14
F-0.4922856661080076
aF-0.8139004130052694
aF-1.4334654586493025
aa(lp15
F-0.2992092733107453
aF-0.8452317740852618
aF-1.543496119750825
aa(lp16
F0.08735953422538469
aF-0.8303876824076988
aF-1.6335542186135668
aa(lp17
F0.3465828769929814
aF-1.0395730200940156
aF-2.0712559040197833
aa(lp18
F-1.6009487177729855
aF-1.0072605577504194
aF-1.6643957314411109
aaa(lp19
(lp20
F-0.4849948743437602
aF-0.21213625214720758
aF-0.4443635700181655
aa(lp21
F-0.032552516419215256
aF0.015779694767087318
aF-0.005234623555178966
aa(lp22
F-0.33444661503353945
aF0.21069276999944264
aF0.563937237897796
aa(lp23
F-0.2674823725568268
aF0.3132404958248827
aF0.8307637753547742
aa(lp24
F-0.8679742044486902
aF-0.14844107472617757
aF-0.3155421751030897
aa(lp25
F-0.7752570820321845
aF-0.23642282302075432
aF-0.5266390248226545
aa(lp26
F-0.6095663398447899
aF-0.29079477044618496
aF-0.5097237729992596
aa(lp27
F-0.29621575427442093
aF-0.3905382757405379
aF-0.4312394088354176
aa(lp28
F-0.3189417512038618
aF-0.30419282317199164
aF-0.6790811462763487
aa(lp29
F-0.030687788719475875
aF-0.3873878543680743
aF-0.7479055632222646
aa(lp30
F0.19003846622767512
aF-0.4031369628390213
aF-0.8392478278992066
aa(lp31
F0.5176231988736246
aF-0.5957437865745053
aF-0.9875147206402537
aa(lp32
F0.8843689642912934
aF-0.6497201976719471
aF-1.1789705606436305
aa(lp33
F1.4372419181597789
aF-0.8519930117986447
aF-1.7118006656986935
aa(lp34
F-1.3959716441872307
aF-0.7923355675267384
aF-1.4071936080811118
aaa(lp35
(lp36
F-0.6648844075848851
aF-0.026246119198160216
aF-0.432952690801646
aa(lp37
F-0.13953387730056194
aF0.19798193537704492
aF-0.0028559562037293266
aa(lp38
F-0.35893741456960465
aF0.2175743207922683
aF0.48665907889290017
aa(lp39
F0.18636974415954272
aF0.4676900251939748
aF0.19781133127625963
aa(lp40
F-0.849443229594544
aF-0.08686652268105088
aF-0.26979949074438864
aa(lp41
F-0.6709018676159336
aF-0.08432814662496271
aF-0.3151601642261648
aa(lp42
F-0.528954113744911
aF-0.1512226950744559
aF-0.42025643473659785
aa(lp43
F-0.4598869363598778
aF-0.2707529453389984
aF-0.4336314691292649
aa(lp44
F-0.2255892756171558
aF-0.35337552583447845
aF-0.748005460918948
aa(lp45
F0.06055447693109125
aF-0.3608811333000256
aF-0.9262869100993802
aa(lp46
F0.3023120092939797
aF-0.41502759746406603
aF-0.7295990137305514
aa(lp47
F0.5059445611677725
aF-0.46391638574256583
aF-0.9569213511647359
aa(lp48
F0.7194416174338726
aF-0.569627532365794
aF-1.0787299789621114
aa(lp49
F1.1005571921587287
aF-0.8546049008429902
aF-1.651689000913846
aa(lp50
F-1.3412940169419818
aF-0.6875567634020733
aF-1.2914639311673428
aaa(lp51
(lp52
F-0.3325292974303037
aF-0.0104129548280501
aF-0.36668772857702586
aa(lp53
F-0.07860549024856504
aF0.212163519535711
aF0.007905829074646948
aa(lp54
F-0.23253834551832203
aF0.2897866249802117
aF0.4022069119122691
aa(lp55
F0.25187587740076983
aF0.30334394626297
aF0.7664028692379621
aa(lp56
F-0.8220439548445236
aF-0.063807972360405
aF-0.28305534110437086
aa(lp57
F-0.47388853055117086
aF-0.16551631618816895
aF-0.4190613129169398
aa(lp58
F-0.5068606129073331
aF-0.21026916162101048
aF-0.406130663920065
aa(lp59
F-0.26841118272789893
aF-0.37233617261519203
aF-0.46824576469611845
aa(lp60
F-0.10906360671574268
aF-0.34264602845822517
aF-0.5285204850799367
aa(lp61
F-0.03139468499610554
aF-0.3266981703969692
aF-0.5265999368912919
aa(lp62
F0.40883704731891096
aF-0.35194536279628624
aF-0.8449805553774736
aa(lp63
F0.5297827287164621
aF-0.5290785376404742
aF-1.0508748060479884
aa(lp64
F0.8919689345444349
aF-0.510142592284853
aF-1.128534913969823
aa(lp65
F1.43385079238024
aF-0.7155049532188971
aF-1.4970719163212904
aa(lp66
F-1.2605250635119698
aF-0.79275208975297
aF-1.3824687723665867
aaa(lp67
(lp68
F-0.5735594034590579
aF0.118789411550287
aF-0.5577116514809486
aa(lp69
F-0.036625643888988514
aF0.22135658802191274
aF0.10649310261312066
aa(lp70
F-0.4635661646946921
aF0.3613905974493851
aF0.7953790352343514
aa(lp71
F-0.0801549400806886
aF0.3965483943438134
aF0.6850463218245272
aa(lp72
F-0.5644370609315267
aF-0.043748210200858645
aF-0.18847410082221025
aa(lp73
F-0.7214112135751873
aF-0.23727473193331836
aF-0.30474326530628876
aa(lp74
F-0.4270123758227258
aF-0.23031846706873907
aF-0.3092008466820801
aa(lp75
F-0.1880189235480832
aF-0.2937289708910715
aF-0.35982737482688953
aa(lp76
F-0.06236680865194222
aF-0.2684786793902309
aF-0.4013849851291103
aa(lp77
F0.006860740453874038
aF-0.3071003566444318
aF-0.6758006787907795
aa(lp78
F0.22278372298810636
aF-0.3861506276474541
aF-0.8286469856698656
aa(lp79
F0.6091726469173663
aF-0.4956029450103281
aF-0.8058505111663993
aa(lp80
F0.9451305608541388
aF-0.5695637790661091
aF-1.1847807831057364
aa(lp81
F1.410240929331123
aF-0.7896794655587209
aF-1.534242558437247
aa(lp82
F-1.2712191952849017
aF-0.8435642951946568
aF-1.2841998778014387
aaa(lp83
(lp84
F-0.2372064595394453
aF0.06656999220711678
aF-0.7544168429749292
aa(lp85
F0.01627728595060164
aF0.21883218301499902
aF0.12666825532996748
aa(lp86
F-0.023503531598774042
aF0.34958718415095485
aF0.7587767345509088
aa(lp87
F0.27278118544107177
aF0.411596858819983
aF0.9074380959436313
aa(lp88
F-0.7945766057646751
aF-0.05825712185093985
aF-0.3345884553766309
aa(lp89
F-0.6507699835065831
aF-0.08429587482679075
aF-0.401099265106474
aa(lp90
F-0.9793516639844324
aF-0.14333039577782478
aF-0.4793084328580993
aa(lp91
F-0.5457687244587112
aF-0.2939869864712794
aF-0.4015405468403736
aa(lp92
F-0.1450288849736703
aF-0.3145371594717424
aF-0.357525895523582
aa(lp93
F0.2159498889059012
aF-0.36268274099254283
aF-0.4760162263448402
aa(lp94
F0.44163764305914593
aF-0.45953637359392024
aF-0.8002060760238662
aa(lp95
F0.6816478510874723
aF-0.5799925615245742
aF-0.772922080210259
aa(lp96
F0.8694378386050622
aF-0.5633567843392477
aF-1.0731292239918073
aa(lp97
F1.3431912858572452
aF-0.8754686725329374
aF-1.7335859190881673
aa(lp98
F-1.2918044108661129
aF-0.8709427201985586
aF-1.2236821478500703
aaa(lp99
(lp100
F-0.9297655333200128
aF0.018032164647775115
aF-1.120035184814447
aa(lp101
F-0.24672229254103734
aF0.24387641848563052
aF0.1805455922686738
aa(lp102
F-0.8248578286613621
aF0.27163709090446625
aF0.2039464485384319
aa(lp103
F-0.38958116895233813
aF0.42534704676464735
aF0.6984886097597243
aa(lp104
F-1.4087548769784966
aF-0.11762887340243054
aF-0.4180968740054682
aa(lp105
F-1.1131435893728274
aF-0.2593663287684817
aF-0.5904257883751157
aa(lp106
F-1.0669290441147454
aF-0.3682977706670527
aF-0.48616618849821036
aa(lp107
F-1.0022232095703383
aF-0.37013811827827564
aF-0.5403253774903164
aa(lp108
F-0.703146403757022
aF-0.3795291469328642
aF-0.6920456281663651
aa(lp109
F-0.007701994835204286
aF-0.3210620547606282
aF-0.6750459728798603
aa(lp110
F0.39825936512458965
aF-0.531971780712043
aF-1.078933897161063
aa(lp111
F0.7346802832211962
aF-0.6578418146557221
aF-1.2756709190930684
aa(lp112
F0.874709549391717
aF-0.6718480365506554
aF-1.3994877445132434
aa(lp113
F1.426912454871703
aF-0.9687222232869704
aF-1.8593506192494662
aa(lp114
F-1.5409762476627495
aF-0.8901335663071837
aF-1.6018366085326778
aaa(lp115
(lp116
F-0.5256834078175859
aF-0.1678564694660242
aF-0.9230951316617385
aa(lp117
F-0.14595085175169148
aF0.23443594241920884
aF-0.18806540420079634
aa(lp118
F-0.11804124297544061
aF0.1035546007602906
aF0.2499260815115874
aa(lp119
F0.05631643839008188
aF0.4346936809646112
aF0.12921616993289917
aa(lp120
F-1.0866765107828615
aF-0.2834654365511197
aF-0.5475224718509766
aa(lp121
F-1.058339359875445
aF-0.2702628179516679
aF-0.922602892216405
aa(lp122
F-0.9806762244736719
aF-0.2983494217557625
aF-0.6835734612017856
aa(lp123
F-0.960760680897785
aF-0.2523559706236304
aF-0.7605541742290863
aa(lp124
F-0.8210401295955823
aF-0.44148049161783065
aF-0.7077010564029594
aa(lp125
F-0.4088109991203203
aF-0.4843999039412721
aF-0.8791334112518692
aa(lp126
F0.12647478994951813
aF-0.47834271541989465
aF-0.939819002128751
aa(lp127
F0.7476165282942571
aF-0.6410543591183573
aF-1.273471068661983
aa(lp128
F0.944279886751896
aF-0.7343005701612138
aF-1.3572705004727543
aa(lp129
F1.1410610214679793
aF-0.9644165086509644
aF-1.9211752089668006
aa(lp130
F-1.529527736685339
aF-0.922065739654802
aF-1.4675197957066977
aaa(lp131
(lp132
F-0.7468774688373342
aF-0.19291064303782754
aF-0.9170794833069021
aa(lp133
F-0.13222594697900616
aF0.04114807630058302
aF-0.2943921392923869
aa(lp134
F-0.07007095138046024
aF0.23498736938288398
aF0.007777331726380218
aa(lp135
F0.14735816507590543
aF0.16368287742690749
aF0.15542051978783117
aa(lp136
F-0.9339253148841665
aF-0.3090923069204714
aF-0.7184698494557061
aa(lp137
F-1.0124054337841686
aF-0.3035712542287577
aF-0.5954941507093673
aa(lp138
F-0.9602227174347809
aF-0.35319240619808584
aF-0.6710592552784662
aa(lp139
F-1.0123495829278333
aF-0.3993246550587051
aF-0.7382263646006462
aa(lp140
F-0.841723908004134
aF-0.42105030342614413
aF-0.7940176651891274
aa(lp141
F-0.33377025218053386
aF-0.4644238708086518
aF-0.7337160045812605
aa(lp142
F-0.14960203505075928
aF-0.5464031748693887
aF-0.9451422966878956
aa(lp143
F0.3711079569862701
aF-0.6673973412105835
aF-1.149116311449753
aa(lp144
F0.8196116336299957
aF-0.6865595588665911
aF-1.2862355970515482
aa(lp145
F1.033468291905462
aF-0.888709063504159
aF-1.7691358009098752
aa(lp146
F-1.3761493825744813
aF-0.8408397520588778
aF-1.4845270297486812
aaa(lp147
(lp148
F-0.6899609070145041
aF-0.2757634110918152
aF-1.0054450611894103
aa(lp149
F-0.4075499719773214
aF-0.14458776387398192
aF-0.5643844574061324
aa(lp150
F-0.25317140079096034
aF-0.09465018292243796
aF-0.2436696696968203
aa(lp151
F-0.1419062790935303
aF-0.0641693826723408
aF-0.1335416125462579
aa(lp152
F-0.8193681453761479
aF-0.33502929129728054
aF-0.7416698804696137
aa(lp153
F-0.7203722487738942
aF-0.36016691513982063
aF-0.8080512110876082
aa(lp154
F-0.8194979591547171
aF-0.40809754893953676
aF-0.966343839597041
aa(lp155
F-0.8183571666805605
aF-0.506992296530763
aF-0.7581388382018637
aa(lp156
F-0.652920102845354
aF-0.4502168677197635
aF-0.9185259617959715
aa(lp157
F-0.5731521041198664
aF-0.4472598827380726
aF-1.1361868016723398
aa(lp158
F-0.25632100378291806
aF-0.5558383538500552
aF-1.0902685721401912
aa(lp159
F0.02766529303406759
aF-0.5580755020888583
aF-1.1849311856303295
aa(lp160
F0.4707318837978567
aF-0.6683977496995736
aF-1.3067777430842635
aa(lp161
F0.7308888289122848
aF-0.8444436088934131
aF-1.6494941872884177
aa(lp162
F-1.2936864883672907
aF-0.7510893257455332
aF-1.2595266961618994
aaaaa(lp163
(lp164
(lp165
(lp166
F-0.8376043246846416
aF-0.4706605274365135
aF-1.4235804144233033
aa(lp167
F-0.9500020972581941
aF-0.36678692009644726
aF-1.2667555998923368
aa(lp168
F-0.8926111807297393
aF-0.461231453580287
aF-1.2754649876609723
aa(lp169
F-0.9406172748246618
aF-0.7008007495756224
aF-1.1904391657467182
aa(lp170
F-0.7735401905071708
aF-0.5717622357597092
aF-1.1116710459527854
aa(lp171
F-0.5639536098140618
aF-0.40908912581795037
aF-1.217246772679088
aa(lp172
F-0.33648494916729865
aF-0.4822805995475661
aF-0.9689053208944741
aa(lp173
F-0.024690196321403655
aF-0.46508654162690494
aF-0.5463126559347431
aa(lp174
F0.8956986770426111
aF-0.3808766151099393
aF-0.682673102807587
aaa(lp175
(lp176
F-0.4255874795876017
aF0.27313926652442194
aF0.029906366356332578
aa(lp177
F-0.32916949538112505
aF0.19808770054241698
aF0.013363610225636095
aa(lp178
F-0.17046251003336893
aF0.08088534882388554
aF0.04658060137225313
aa(lp179
F-0.21387867633559512
aF0.08033938179013658
aF-0.09345456437997025
aa(lp180
F0.030670859104029155
aF0.09205504395570364
aF0.22362133229443493
aa(lp181
F0.209186019626571
aF0.07736106762949568
aF0.17710060736929265
aa(lp182
F0.5044206517918381
aF0.14779279569225745
aF0.3139361950990164
aa(lp183
F0.584527469658905
aF0.28978144581490983
aF0.4504497579481533
aa(lp184
F1.361476906785931
aF0.38944198735885344
aF0.718585597603311
aaa(lp185
(lp186
F-0.31129042948895214
aF0.15924742925517685
aF2.8574176833186943e-06
aa(lp187
F-0.26511116656232153
aF0.127801975078119
aF-0.07115319473592505
aa(lp188
F-0.1868999464581047
aF0.09348356304364287
aF-0.18913202299780515
aa(lp189
F-0.10556277863209274
aF0.0695751121466695
aF0.0071474520741180055
aa(lp190
F-0.059972355945819705
aF0.09201647683348765
aF-0.003148172097299262
aa(lp191
F0.19328552704511776
aF0.11083819205141417
aF0.4615357110748893
aa(lp192
F0.5105607444775665
aF0.17119770471005205
aF0.22242173810853647
aa(lp193
F0.7711159148242042
aF0.2560810780406977
aF0.6812749329042284
aa(lp194
F1.3248648992612655
aF0.3262177805704658
aF0.7452383545611143
aaa(lp195
(lp196
F-0.2366067201166509
aF0.06412207290418716
aF-0.02709053750801147
aa(lp197
F-0.353154412694889
aF0.12284180701141309
aF0.01112920014614197
aa(lp198
F-0.20730763539460637
aF0.1549291259064898
aF-0.006453159354477485
aa(lp199
F-0.18842426523990613
aF0.09238063657027817
aF-0.031769220803571675
aa(lp200
F0.0651171138590438
aF0.03225936648141213
aF0.09232762681230279
aa(lp201
F0.21589958873037954
aF0.1171843084307438
aF0.11779651060730484
aa(lp202
F0.5441680672009718
aF0.1928650772602126
aF0.37042430361844086
aa(lp203
F0.6917509843367387
aF0.25305387037939475
aF0.6012806906465478
aa(lp204
F1.3098703568747752
aF0.28139327791735547
aF0.8835865701452491
aaa(lp205
(lp206
F-0.09503301716661791
aF0.14723004287350377
aF0.0946469480869609
aa(lp207
F-0.10824658393255669
aF0.029633641132234986
aF0.209911263815968
aa(lp208
F-0.11960473515177393
aF0.17948933712167203
aF0.030358412330211818
aa(lp209
F-0.15153931975166463
aF0.1512569326061039
aF0.36420304255523983
aa(lp210
F0.030138217891852316
aF0.11518004668377257
aF0.38009159996429376
aa(lp211
F0.4482956393334343
aF0.09233963876767068
aF0.4204931150780425
aa(lp212
F0.6581761215469776
aF0.2557725226287283
aF0.4391292050120857
aa(lp213
F0.9476871689316966
aF0.2680083036178731
aF0.602137245504133
aa(lp214
F1.3678262416244888
aF0.31057171818128965
aF0.6702693321261083
aaa(lp215
(lp216
F-0.28370266707649655
aF0.3089266668675537
aF0.0455013830869053
aa(lp217
F-0.42134492970115583
aF0.16659060783016985
aF0.010328575794218156
aa(lp218
F-0.3059036518935759
aF0.20162000991231702
aF-0.19632643912826614
aa(lp219
F-0.10960070379477546
aF0.20556854404776748
aF0.0813086268047614
aa(lp220
F0.22055259726020385
aF0.13353859510903418
aF0.04607112988587413
aa(lp221
F0.3612629256504915
aF0.15821116323281686
aF0.4647278727549084
aa(lp222
F0.5228782990270698
aF0.23020300727111442
aF0.47241043022019824
aa(lp223
F0.7870346893254954
aF0.314592855978815
aF0.6019268215413215
aa(lp224
F1.359585713644929
aF0.3832545911998338
aF0.9427542769869183
aaa(lp225
(lp226
F-0.33195747541454707
aF0.1720712020813923
aF0.08752833525861686
aa(lp227
F-0.3753216697192193
aF0.2166467690213718
aF0.10321329057751265
aa(lp228
F-0.29464277886563967
aF0.06136675009572831
aF-0.01156120638009713
aa(lp229
F-0.4032406536520067
aF0.11441907501051901
aF-0.14815086242734177
aa(lp230
F0.19458059971839256
aF0.06206958810731447
aF0.44825587473652745
aa(lp231
F0.424926100103623
aF0.22294465446459152
aF0.2118157065757404
aa(lp232
F0.6530695801561341
aF0.37274261271778764
aF0.4293075733858887
aa(lp233
F0.8789815710864733
aF0.3529455516611218
aF0.6276547391953868
aa(lp234
F1.2986127156983343
aF0.3006803858347153
aF0.7174410051682987
aaa(lp235
(lp236
F-0.5694013836772964
aF0.11412670154673268
aF-0.31541929334238317
aa(lp237
F-0.489047957699599
aF0.1699016206377827
aF-0.1909895991585454
aa(lp238
F-0.45141819903354763
aF-0.00797671057513879
aF-0.45424194891665565
aa(lp239
F-0.6076250315245677
aF0.10837648131324437
aF-0.39615770941315787
aa(lp240
F-0.2926032186686267
aF-0.05768179831556652
aF-0.18303374167707315
aa(lp241
F0.13222284310726382
aF0.011774305266574775
aF0.03741254843187128
aa(lp242
F0.6578698709994661
aF0.15819828263640534
aF0.4840535793793599
aa(lp243
F0.8695907864115759
aF0.2405901874479692
aF0.04584305283063538
aa(lp244
F1.3898966765346712
aF0.32630438076757506
aF0.42211796035380866
aaa(lp245
(lp246
F-0.5266292674980828
aF0.065562631785952
aF-0.5014123542352333
aa(lp247
F-0.6114120770239587
aF0.06704784772187752
aF-0.3470438248858048
aa(lp248
F-0.5604450226089339
aF-0.04789558765342096
aF-0.4726020299485566
aa(lp249
F-0.43975339109176814
aF-0.11895430609702726
aF-0.4782352983267986
aa(lp250
F-0.1992598688756906
aF0.016019478186592016
aF-0.23165241564396102
aa(lp251
F-0.16361211509184515
aF0.02098848872901201
aF-0.19366245588338582
aa(lp252
F0.35929987638751637
aF0.10744557971647231
aF-0.04516701905719601
aa(lp253
F0.8663990005488014
aF0.21087579696840714
aF0.2724047623231328
aa(lp254
F1.3170299853968324
aF0.2501188388601224
aF0.2731750790071495
aaa(lp255
(lp256
F-0.5712008991392954
aF-0.10756118204781534
aF-0.6026036670207052
aa(lp257
F-0.5198794854931427
aF-0.1720423063679395
aF-0.4612008981149809
aa(lp258
F-0.5573853169520682
aF-0.1432058145968613
aF-0.3559041925814023
aa(lp259
F-0.5245452589677418
aF-0.11495141274360401
aF-0.45992676172872543
aa(lp260
F-0.4331673432938618
aF-0.11255291026748687
aF-0.35086590666592543
aa(lp261
F-0.31097143606056044
aF-0.2733257396298488
aF-0.42563180799273603
aa(lp262
F-0.029726019614184866
aF-0.16032141286753918
aF-0.17888550144772689
aa(lp263
F0.46303133104987804
aF0.06185945213958216
aF0.02660525732322521
aa(lp264
F1.1991629760296247
aF0.03965134892411786
aF0.09727376773814325
aaaaa(lp265
(lp266
(lp267
(lp268
F-0.7844934230447269
aF-0.4638079603734069
aF-1.273017128322674
aF-0.6941437309352846
aa(lp269
F-1.068201928701831
aF-0.4746824424276201
aF-2.134076509141659
aF-1.0231004751432229
aa(lp270
F-1.195850831961447
aF-0.5370521490839858
aF-1.926759152026614
aF-0.9484445289301409
aa(lp271
F-1.1734609662690754
aF-0.5131420418288917
aF-1.7439805886236763
aF-1.17646090547482
aa(lp272
F-1.2294427647985415
aF-0.31593359022459777
aF-0.9832502868870988
aF-1.0559604906906854
aa(lp273
F-1.0410261619280805
aF-0.620189701239801
aF-1.2305986710478973
aF-1.011613159592563
aa(lp274
F-0.8913658456534235
aF-0.6660951983756518
aF-1.4199300587237442
aF-1.1652886169476013
aa(lp275
F-0.8571487163596087
aF-0.647543389818082
aF-1.355253560629397
aF-0.9159340555655596
aa(lp276
F-0.47235724332293155
aF-0.7419308357284848
aF-1.506201665090788
aF-0.7426427171998687
aa(lp277
F0.09534495337773004
aF-0.7741818714011517
aF-1.5210613352669953
aF-0.4378587112322767
aaa(lp278
(lp279
F-0.07260827394920637
aF0.058861250097504425
aF0.04705821788515084
aF0.3386484200816752
aa(lp280
F-0.5973956853791569
aF-0.18656806042140467
aF-1.038828016113868
aF-0.24782891896607137
aa(lp281
F-0.5776248973161218
aF-0.09359698150556237
aF-0.8605347120540704
aF-0.2227626011166748
aa(lp282
F-0.6009369018621051
aF0.14237384466271125
aF-0.263217407844939
aF-0.09737894480842814
aa(lp283
F-0.6669140469615509
aF0.23458084725026596
aF0.16208291231976207
aF-0.16587485706590532
aa(lp284
F-0.55699140507391
aF-0.22725139696675345
aF-0.4273059437855058
aF-0.24460737842319347
aa(lp285
F-0.4088570468698206
aF-0.33283767649289414
aF-0.4828318332525044
aF0.021991994087165796
aa(lp286
F-0.22632070667420404
aF-0.2836931363134825
aF-0.4770376483625195
aF0.20524218839144687
aa(lp287
F0.20932795798817488
aF-0.3930158969282873
aF-0.9319540429010283
aF0.13729042231523267
aa(lp288
F0.734865464470503
aF-0.5646994407075255
aF-1.1386847082577116
aF0.514631369109359
aaa(lp289
(lp290
F-0.01629373220888579
aF0.11127966085655482
aF0.07491182704826069
aF0.2128659301788655
aa(lp291
F-0.6178480043893726
aF-0.23044733875438328
aF-0.9909279991729404
aF0.021756209270343142
aa(lp292
F-0.6205559630235075
aF-0.014733934730367566
aF-0.6744477258825525
aF-0.27287158973661535
aa(lp293
F-0.6670212868418174
aF-0.014704029766919775
aF-0.21924724468961426
aF-0.18297184541394595
aa(lp294
F-0.5475471141151877
aF0.24433031465154592
aF0.7467240441567621
aF-0.45859517963655494
aa(lp295
F-0.6090274044403238
aF-0.3006967364707891
aF-0.3044189132102435
aF-0.31837343077527397
aa(lp296
F-0.31684279639415214
aF-0.3171255294530941
aF-0.539010828856728
aF0.0498665443258453
aa(lp297
F-0.15467969135100756
aF-0.3057122364944637
aF-0.3088367463461379
aF0.27893526667229873
aa(lp298
F0.14644797315311572
aF-0.3417940528125627
aF-0.7451602904338559
aF0.43369171895141206
aa(lp299
F0.7227605922934106
aF-0.5975077771776143
aF-1.0006319496099416
aF0.5465890753838786
aaa(lp300
(lp301
F0.02518541208188628
aF0.15589399240521856
aF0.16551129246434335
aF0.3443895351336484
aa(lp302
F-0.47073426411855795
aF0.02829113259190219
aF-0.8349611258434185
aF-0.10914320806203762
aa(lp303
F-0.4989259995712075
aF-0.05722214699536674
aF-0.4467646981502088
aF-0.230742574714574
aa(lp304
F-0.6602238423435983
aF0.15117105100196074
aF-0.15474556592257632
aF-0.15877216505786618
aa(lp305
F-0.6761662980794018
aF0.2828402659207604
aF0.3757235577183346
aF-0.05046793485484123
aa(lp306
F-0.49948107420527244
aF-0.15878779333816212
aF-0.2323612641479287
aF-0.26207997339448935
aa(lp307
F-0.2001627607847721
aF-0.21266419140675802
aF-0.5020867382397508
aF0.042537407663127545
aa(lp308
F-0.07591425796058246
aF-0.2544662448311523
aF-0.5183606589665481
aF0.25923910929467336
aa(lp309
F0.16254203896685532
aF-0.2860857153051716
aF-0.648609789793778
aF0.06932427852738984
aa(lp310
F0.7572085034376216
aF-0.5443142367450431
aF-0.9442450368208661
aF0.5350487722065237
aaa(lp311
(lp312
F0.027221899522135815
aF0.14512910054198577
aF0.3223783173326891
aF0.5069477438181589
aa(lp313
F-0.6233883434498853
aF-0.21178416915795756
aF-0.7568087869484755
aF0.1235564278607095
aa(lp314
F-0.6674575858316913
aF-0.06172938521325492
aF-0.7840074489614829
aF0.22096020251705234
aa(lp315
F-0.6093628564750583
aF0.14792512221207188
aF-0.0936180218963036
aF0.09049640661556851
aa(lp316
F-0.6813600414783438
aF0.2625406327029214
aF0.7701503493206008
aF0.12003388651120384
aa(lp317
F-0.45703529711437274
aF-0.1994062059514305
aF-0.23576657532710835
aF-0.08565379647827782
aa(lp318
F-0.167840018440914
aF-0.18391051666976546
aF-0.1491218347955371
aF-0.0042635467687089645
aa(lp319
F-0.11606789340541816
aF-0.1427999356447557
aF-0.43751626042702413
aF0.2107955322485097
aa(lp320
F0.22911137168908424
aF-0.3057984660197545
aF-0.5093859364668473
aF0.5809739746637751
aa(lp321
F0.7253480842850083
aF-0.5278226763267041
aF-0.9908608174194665
aF0.5631679480495981
aaa(lp322
(lp323
F-0.04585951469978601
aF0.152394378672711
aF0.1977242415319103
aF0.22196338649717787
aa(lp324
F-0.696009096419385
aF-0.033383174846563377
aF-1.3188551278906084
aF-0.07639029200403913
aa(lp325
F-0.8058622756333977
aF-0.02254873057367516
aF-0.8088885471465665
aF-0.15578028426545637
aa(lp326
F-0.7238228779166439
aF0.13346356134842868
aF-0.12220416968896734
aF-0.07504205606890442
aa(lp327
F-0.9082866066205905
aF0.33565648184384295
aF0.43000367844412796
aF-0.20315263879324433
aa(lp328
F-0.8097754522750245
aF0.019956035855514663
aF-0.8014950756590935
aF-0.30819677356125724
aa(lp329
F-0.14524895768971824
aF-0.189832039148186
aF-0.36411401095897583
aF0.11026210676361253
aa(lp330
F-0.02669851707915511
aF-0.2847161523913615
aF-0.2579368497066816
aF0.46987920620638407
aa(lp331
F0.22254718610232538
aF-0.30378009491191565
aF-0.6171080998108942
aF0.39667024630469133
aa(lp332
F0.65591029638831
aF-0.41428022311016904
aF-0.9126138253376003
aF0.778640110726727
aaa(lp333
(lp334
F0.1210201965061205
aF0.30551396620891275
aF0.22808087250537837
aF0.454758912830789
aa(lp335
F-0.8865298362649622
aF-0.2731839135141896
aF-1.8096287667096922
aF0.0064068134688390795
aa(lp336
F-0.8844168588306056
aF-0.327330563194453
aF-1.2958275927695944
aF-0.026361117189624313
aa(lp337
F-0.9894560797084476
aF0.2322507307925627
aF-0.4205535592756971
aF-0.048631891426628826
aa(lp338
F-1.0144716831572
aF0.39584895341311077
aF0.20913520348179726
aF-0.07169110248677782
aa(lp339
F-0.8167952503472151
aF-0.31257639999646947
aF-0.49649571390718555
aF-0.39800121052589693
aa(lp340
F-0.680298396609374
aF-0.3299581866680875
aF-0.7300651510494098
aF0.059779753160365115
aa(lp341
F-0.41006635964063115
aF-0.4105085736774753
aF-0.5278827369628138
aF0.4012064516321544
aa(lp342
F0.5058320381780026
aF-0.44157285668472696
aF-0.7103696319490141
aF0.3353378329501913
aa(lp343
F0.8564561116045661
aF-0.5473476451133931
aF-1.1355102792613125
aF0.6071872768464892
aaa(lp344
(lp345
F-0.27113919908854667
aF0.12205459383930944
aF-0.014059367663885356
aF0.01926883251181643
aa(lp346
F-0.8788336762112025
aF-0.3333918746646795
aF-1.5256133845112712
aF-0.09891336253400007
aa(lp347
F-0.9261316973159882
aF-0.37536977102137403
aF-1.4238090713131992
aF-0.09365171094540173
aa(lp348
F-0.9505068192517429
aF-0.003989035385378061
aF-0.5026707825202177
aF-0.44624226573145603
aa(lp349
F-0.9246731977452258
aF0.05698889245540479
aF0.22001078341449318
aF-0.35230421208181545
aa(lp350
F-0.7846879317260704
aF-0.3262993346212076
aF-0.8248643694290536
aF-0.41717002848009455
aa(lp351
F-0.6110025759729109
aF-0.3682973273102157
aF-0.6201400961341558
aF-0.5408095504751287
aa(lp352
F-0.5924142836649344
aF-0.4029272076052016
aF-0.6470182800139093
aF-0.09714560055430377
aa(lp353
F0.07738337977168498
aF-0.4786429549619574
aF-0.7913469957945829
aF0.46276808470789627
aa(lp354
F0.8347744854791475
aF-0.6398622495507986
aF-1.0950922894231683
aF0.47508287191939874
aaa(lp355
(lp356
F-0.3923249947263448
aF0.053943702458952185
aF-0.28176446124978555
aF-0.12874864027517768
aa(lp357
F-0.6738476074771608
aF-0.1730915231772537
aF-1.331265435817112
aF-0.3936789417915123
aa(lp358
F-0.8036525527471027
aF-0.20950001566438312
aF-1.1542158520819055
aF-0.5049614246201805
aa(lp359
F-0.836478314907083
aF-0.1024898445269919
aF-1.0109450925230012
aF-0.35716165789578863
aa(lp360
F-0.8428567796346237
aF0.06894388140430202
aF0.03307409120403275
aF-0.5255141757229285
aa(lp361
F-0.7579551818388908
aF-0.29076864361346916
aF-0.679710615295657
aF-0.5278238527029929
aa(lp362
F-0.5294990593605876
aF-0.359835397245768
aF-0.6315591488618062
aF-0.43182783488288196
aa(lp363
F-0.5023728002697582
aF-0.4639551226101546
aF-0.7974839851947861
aF-0.4746763935686768
aa(lp364
F-0.22793149623331246
aF-0.5204325148378686
aF-0.9656696716075747
aF-0.09252776806162775
aa(lp365
F0.8429335588166393
aF-0.6200694204480621
aF-1.2917807282356484
aF0.3897774661488909
aaa(lp366
(lp367
F-0.38462096551076175
aF-0.08133048447954802
aF-0.23754995149446123
aF-0.18582305199000473
aa(lp368
F-0.6972818442095218
aF-0.2724599799551829
aF-1.4646341921352644
aF-0.4534812697335348
aa(lp369
F-0.6631670604011348
aF-0.37973006255742
aF-1.207109209419626
aF-0.539113260483686
aa(lp370
F-0.775407413894788
aF-0.23879190599351735
aF-0.913512167829522
aF-0.7039791559305821
aa(lp371
F-0.7482903415308237
aF-0.019486684780181222
aF-0.15678999164176993
aF-0.5184526953475048
aa(lp372
F-0.5683481143701034
aF-0.36656953688883903
aF-0.6891321936188289
aF-0.6254591387482119
aa(lp373
F-0.5954899860563595
aF-0.45288122811651094
aF-0.9222779867882942
aF-0.5678403946799631
aa(lp374
F-0.5702885741316417
aF-0.39440395925406735
aF-0.8225786817755608
aF-0.5336231917866692
aa(lp375
F-0.32531577305037856
aF-0.46555787398590015
aF-0.8963510137626115
aF-0.420239459300644
aa(lp376
F0.43839906193654554
aF-0.5808483222232805
aF-1.3819198195837472
aF-0.006976915658540952
aaaaa.