(lp0
(lp1
(lp2
(lp3
(lp4
F-0.9979780387330429
aF-0.604835107774397
aF-1.6715281834963713
aa(lp5
F-0.6381719916147268
aF-0.39959367530666473
aF-1.1856880583534195
aa(lp6
F-0.5900480642692241
aF-0.3666724001204047
aF-0.8703280039059935
aa(lp7
F-0.48582518756134513
aF-0.277601084101531
aF-0.8626024350446456
aa(lp8
F-1.2727501621532415
aF-0.5960592493001617
aF-1.3485643726586947
aa(lp9
F-1.1140124830157239
aF-0.691972088006632
aF-1.2927319216884763
aa(lp10
F-1.1316926363693707
aF-0.6129077995906609
aF-1.2999874830620213
aa(lp11
F-1.332807765228273
aF-0.562605277001018
aF-1.2257187746936182
aa(lp12
F-1.3102825845673463
aF-0.7376369325308375
aF-1.318164292360974
aa(lp13
F-1.1323227006048622
aF-0.6298015806704661
aF-1.3814393895426254
aa(lp14
F-0.5049199450025437
aF-0.7487721348513554
aF-1.31805527631344
aa(lp15
F-0.3280622792585692
aF-0.7691635913080495
aF-1.6525736466533985
aa(lp16
F0.012704645152614685
aF-0.86044214299405
aF-1.5052467511799
aa(lp17
F0.23888669038131705
aF-0.930099690797647
aF-1.7663636138714143
aa(lp18
F-1.386695646780734
aF-0.8767671841294412
aF-1.4443534913765905
aaa(lp19
(lp20
F-0.35017248005123436
aF-0.12831108729204266
aF-0.1933971790828457
aa(lp21
F-0.08573282513198967
aF0.16691545714211115
aF-0.03810382335232951
aa(lp22
F-0.22526483521198545
aF0.16761405173047442
aF0.09683231694081175
aa(lp23
F0.12072550624511755
aF0.16035584580788848
aF0.4236346081232787
aa(lp24
F-0.4854812899243203
aF-0.08648887244262247
aF-0.4476178980653991
aa(lp25
F-0.5666551443440786
aF-0.13782784223188688
aF-0.6496510636096055
aa(lp26
F-0.6121321273754137
aF-0.1730023410056033
aF-0.32123113145755433
aa(lp27
F-0.5116859925474909
aF-0.26152754000175055
aF-0.5524725550323013
aa(lp28
F-0.5108462627229317
aF-0.2539230539483025
aF-0.5515598592256352
aa(lp29
F-0.18011645504472298
aF-0.35574512815057957
aF-0.6525140138985577
aa(lp30
F0.08353356787170936
aF-0.347992846007754
aF-0.5787911889402646
aa(lp31
F0.33575524281755376
aF-0.4864051448123798
aF-0.9300963757741187
aa(lp32
F0.7121684886989381
aF-0.5419897253264989
aF-1.0409845066789665
aa(lp33
F1.0719450840690985
aF-0.6801322354432883
aF-1.3451652781567085
aa(lp34
F-0.9939308415188272
aF-0.6508258938374998
aF-1.008391909419
aaa(lp35
(lp36
F-0.16675008883174075
aF0.052242622415054556
aF-0.36503115034179834
aa(lp37
F0.05262108781476671
aF0.13900998479211318
aF-5.281755783128651e-05
aa(lp38
F0.14576493246655253
aF0.226612297485441
aF0.3321404733400336
aa(lp39
F0.1766552695382745
aF0.23371346712625943
aF0.6124677648626022
aa(lp40
F-0.5941575010103187
aF-0.1612048934392415
aF-0.2037430404738734
aa(lp41
F-0.46549311316650704
aF-0.20118914269248558
aF-0.28464930210098655
aa(lp42
F-0.5108302466192574
aF-0.20207193855868344
aF-0.3843465950904136
aa(lp43
F-0.409996731523286
aF-0.2389835514080429
aF-0.5437434105093384
aa(lp44
F-0.6024473017176449
aF-0.3080162670253013
aF-0.37441319995680916
aa(lp45
F-0.1327049785281441
aF-0.2864536632787477
aF-0.673756441714293
aa(lp46
F0.10831703192072308
aF-0.33088452099440496
aF-0.6214797076769599
aa(lp47
F0.4255139355944975
aF-0.4065764100196317
aF-0.7360743495706561
aa(lp48
F0.6626712656526736
aF-0.5276824590569988
aF-1.0288770714035878
aa(lp49
F1.1194853828965063
aF-0.6422152961533103
aF-1.299078169670686
aa(lp50
F-1.0233709554482837
aF-0.6256280668424782
aF-1.0510968016663687
aaa(lp51
(lp52
F-0.23883693407996928
aF-0.08711187306186936
aF-0.22181993163604244
aa(lp53
F0.028361437644137406
aF0.1343596432278277
aF0.04025586908828965
aa(lp54
F-0.04355501959696181
aF0.2254653555617044
aF0.22189117422746432
aa(lp55
F0.27452771172701096
aF0.28200607658752014
aF0.5923236288742906
aa(lp56
F-0.3656856002276768
aF-0.1196637473497358
aF-0.21302245454398713
aa(lp57
F-0.45099494161843606
aF-0.19811213505080796
aF-0.29426208673003484
aa(lp58
F-0.3183941958908711
aF-0.14752253112063568
aF-0.32099541490999783
aa(lp59
F-0.38367288027080526
aF-0.267987181309528
aF-0.3394455048273112
aa(lp60
F-0.41484769104336994
aF-0.24829244898184205
aF-0.5251858357008701
aa(lp61
F-0.08644304220781937
aF-0.2674419573007081
aF-0.5156196087059773
aa(lp62
F0.08196348690541651
aF-0.30128490272032427
aF-0.6852899042523959
aa(lp63
F0.5306616355787886
aF-0.39798866934836935
aF-0.8251741639056986
aa(lp64
F0.6236634433769673
aF-0.5295013721215239
aF-0.9513273927625935
aa(lp65
F1.1496731406806562
aF-0.5999145692295917
aF-1.1048165437792485
aa(lp66
F-1.0191446783342448
aF-0.6043658462548078
aF-0.9729971158311308
aaa(lp67
(lp68
F-0.1407164419408103
aF-0.04465750304098589
aF-0.2891362080814825
aa(lp69
F0.024622410569470114
aF0.05000292328364863
aF0.262126953775171
aa(lp70
F0.0015577274626034756
aF0.21535234686993215
aF0.5560580020816248
aa(lp71
F0.10517110366104081
aF0.2968928124282694
aF0.5462116778908652
aa(lp72
F-0.2960725407330101
aF-0.10132156866559534
aF-0.27505941109095644
aa(lp73
F-0.2763413428307897
aF-0.07418260513764964
aF-0.25934243457676254
aa(lp74
F-0.3304488460498658
aF-0.17207356635304513
aF-0.23778140034051432
aa(lp75
F-0.1701012523907137
aF-0.21428604569301682
aF-0.45941518026822686
aa(lp76
F-0.25625901070650337
aF-0.29227454123244595
aF-0.432310300256478
aa(lp77
F0.014368809907303716
aF-0.29647461536241027
aF-0.5001496949458056
aa(lp78
F0.19783791512377616
aF-0.32125581453453494
aF-0.6163367698763892
aa(lp79
F0.5028014497773243
aF-0.3896801467786304
aF-0.6334120812466947
aa(lp80
F0.7534948404353466
aF-0.4591442035411075
aF-0.8975373234250298
aa(lp81
F1.1951926711046574
aF-0.6242378863695257
aF-1.2047599045715394
aa(lp82
F-0.976718761023146
aF-0.5757314033911374
aF-0.9563957567295438
aaa(lp83
(lp84
F-0.10806245288006007
aF0.036028105104053895
aF-0.22450913796317606
aa(lp85
F0.0658766531060693
aF0.24820966434001418
aF0.12177834471806871
aa(lp86
F-0.03525508855283248
aF0.35378692699845
aF0.6042575496815922
aa(lp87
F0.29883858562805393
aF0.2491935068562638
aF0.48444730621827875
aa(lp88
F-0.2394334146093996
aF-0.09783955830043008
aF-0.25488590137371286
aa(lp89
F-0.5196210524164613
aF-0.13106177774122496
aF-0.1986121613644821
aa(lp90
F-0.255839746774182
aF-0.08155154780106051
aF-0.3467590894241492
aa(lp91
F-0.1503479524382368
aF-0.24857882843594464
aF-0.3826643502418692
aa(lp92
F-0.2513598550232663
aF-0.3365455672137262
aF-0.3319805370230669
aa(lp93
F0.015239304544037359
aF-0.19001648972172644
aF-0.49142849872358313
aa(lp94
F0.315653629929814
aF-0.34908354604062614
aF-0.6210764237342107
aa(lp95
F0.5427784443097959
aF-0.4206706171399868
aF-0.8270704128791101
aa(lp96
F0.8289593882749512
aF-0.4285440472633916
aF-0.9688308774789937
aa(lp97
F1.212033367038141
aF-0.5925428577829399
aF-1.1994486442198442
aa(lp98
F-0.9524638163671614
aF-0.658709421354417
aF-0.9602047571822838
aaa(lp99
(lp100
F-0.19589424923757467
aF-0.0029098379080736633
aF-0.5047633157705412
aa(lp101
F0.0999505700998131
aF0.25093409957024826
aF0.04100698299698355
aa(lp102
F0.0807857182174803
aF0.3073835691416856
aF0.22142999053508763
aa(lp103
F0.19856488888375304
aF0.25166184042111517
aF0.42145332578474426
aa(lp104
F-0.8445046984436374
aF-0.09233783956937378
aF-0.40609010418487074
aa(lp105
F-0.7820027487485243
aF-0.2578464323711572
aF-0.36537762448166106
aa(lp106
F-0.9196865724519819
aF-0.2281731944926043
aF-0.5215249047087546
aa(lp107
F-0.7442183989997039
aF-0.2643635719201698
aF-0.40737358494934317
aa(lp108
F-0.7299912008301505
aF-0.2405066841659439
aF-0.4976895394130015
aa(lp109
F-0.127274342922508
aF-0.29550730049457397
aF-0.5571752451940659
aa(lp110
F0.36860510485522596
aF-0.34777836668990314
aF-0.6987483577836456
aa(lp111
F0.6554924967983933
aF-0.5203626462066218
aF-0.905776781742801
aa(lp112
F0.8689363035299176
aF-0.6130229056269592
aF-1.155168912968644
aa(lp113
F1.1188666305415795
aF-0.7744777122618581
aF-1.4928543543760968
aa(lp114
F-1.258501832899964
aF-0.7170490911674648
aF-1.1682392395357744
aaa(lp115
(lp116
F-0.40942321791741465
aF-0.08885391700529668
aF-0.8476889119706049
aa(lp117
F-0.07265253034502879
aF0.2022227218809105
aF-0.02283710956773103
aa(lp118
F-0.19027494513287602
aF0.14109369948069073
aF0.10519046165266813
aa(lp119
F0.02263393674549508
aF0.18702260900509032
aF0.3114849413176636
aa(lp120
F-0.9413043962583629
aF-0.25655503147534087
aF-0.5466315306128526
aa(lp121
F-0.8739838844214212
aF-0.2967189056819297
aF-0.5170678306000352
aa(lp122
F-0.8599259082946936
aF-0.30239196620133785
aF-0.5810882584341653
aa(lp123
F-0.806932246022442
aF-0.31374035338317224
aF-0.6265110095877215
aa(lp124
F-1.0512542479158746
aF-0.3108174226095642
aF-0.5417913894908315
aa(lp125
F-0.8222554173916059
aF-0.3892251924604453
aF-0.7416215404078753
aa(lp126
F0.12489171484920927
aF-0.44571707780049075
aF-0.9254967520680546
aa(lp127
F0.5576877429307823
aF-0.49766125314931187
aF-1.066152739435832
aa(lp128
F0.8539137114095193
aF-0.6238505054267832
aF-1.285029756961535
aa(lp129
F1.1039479449160805
aF-0.7698561837759145
aF-1.5115462423365038
aa(lp130
F-1.263623992683284
aF-0.7459714634388428
aF-1.3024635699286493
aaa(lp131
(lp132
F-0.5645929480104758
aF-0.26195026918022607
aF-0.9936195760320816
aa(lp133
F-0.17945988921190043
aF-0.056524058073175204
aF-0.5289926350321155
aa(lp134
F-0.026540572276249744
aF0.12518013067420053
aF-0.023948183385691775
aa(lp135
F-0.0024120587034658653
aF0.008956270999720526
aF0.25057576207954535
aa(lp136
F-0.7765438761354121
aF-0.32215861546251784
aF-0.7011829278883408
aa(lp137
F-0.6787919530960885
aF-0.34938703807554455
aF-0.6962939900565333
aa(lp138
F-0.7221364279565657
aF-0.35211347074992116
aF-0.7383010858468895
aa(lp139
F-0.8173937848143874
aF-0.3768119042518976
aF-0.8584788831260575
aa(lp140
F-0.8240094755163577
aF-0.3938392182177392
aF-0.8127234395789144
aa(lp141
F-0.6595733488996703
aF-0.5037353107716707
aF-0.803466374359545
aa(lp142
F-0.19931563336209135
aF-0.3800594223211526
aF-0.8955979689240432
aa(lp143
F0.3034648369014721
aF-0.6291586003321779
aF-1.0350608064911169
aa(lp144
F0.8260520948622402
aF-0.7159005769501291
aF-1.3071916313506138
aa(lp145
F1.110886470441834
aF-0.7980338004133657
aF-1.5176424268537883
aa(lp146
F-1.2823167651547576
aF-0.8241428482885557
aF-1.2738426303233708
aaa(lp147
(lp148
F-0.7320072959601678
aF-0.29129073133684813
aF-0.9334818929671572
aa(lp149
F-0.3507394365453512
aF-0.3058958213920892
aF-0.5555421716688977
aa(lp150
F-0.15687541379421308
aF-0.08354123795635637
aF-0.35201748638742064
aa(lp151
F-0.1407447481058637
aF-0.05541939021765445
aF-0.3563224533471776
aa(lp152
F-0.8906811722294868
aF-0.3322022396400256
aF-0.7057575579508439
aa(lp153
F-0.7890059980155794
aF-0.32898975823071885
aF-0.7921810023610022
aa(lp154
F-0.730511372065985
aF-0.4999653903134827
aF-0.9798443097350115
aa(lp155
F-0.9089894161823509
aF-0.4673619144942553
aF-0.8928771023761004
aa(lp156
F-0.8459548818674886
aF-0.5222881951260171
aF-1.0080833039569574
aa(lp157
F-0.6366353019759449
aF-0.5577320516084777
aF-0.9362342464965975
aa(lp158
F-0.2157594088146715
aF-0.5612873117549637
aF-1.0576378943874556
aa(lp159
F-0.04497308790526975
aF-0.6120398405283052
aF-1.179020005857362
aa(lp160
F0.4599152715149733
aF-0.6619009478786273
aF-1.3458452472926474
aa(lp161
F0.8222523271560334
aF-0.7460677105709848
aF-1.5553698379565588
aa(lp162
F-1.2853055756871763
aF-0.800235097760287
aF-1.3774445914992812
aaaaa(lp163
(lp164
(lp165
(lp166
F-0.930661046350943
aF-0.4311855740581077
aF-1.4899003048252875
aa(lp167
F-0.8853720945847572
aF-0.45735774365897025
aF-1.399752080680457
aa(lp168
F-1.0820901654798953
aF-0.4953149364238163
aF-1.2018083438557285
aa(lp169
F-1.2274100227786626
aF-0.48805189684077654
aF-1.3235234546683061
aa(lp170
F-1.0167959722467836
aF-0.5147338636668313
aF-1.3981785294588447
aa(lp171
F-0.6907587056286227
aF-0.45419003072069414
aF-1.255949720366971
aa(lp172
F-0.27689378066715614
aF-0.4328395459632934
aF-0.9560226473025983
aa(lp173
F-0.0320189725298985
aF-0.4674736055292212
aF-0.9089385919265279
aa(lp174
F0.796523556280644
aF-0.3341632179183741
aF-1.0877115909048185
aaa(lp175
(lp176
F-0.25769846860089946
aF0.1542700678581843
aF0.003402740882393139
aa(lp177
F-0.34947907386578225
aF0.07966858000394188
aF-0.081760337233084
aa(lp178
F-0.3090128477266109
aF-0.006587117509220312
aF-0.260887812674341
aa(lp179
F-0.4451230452642472
aF-0.12185671803444655
aF-0.15137246362126824
aa(lp180
F-0.23532996341070214
aF0.03485095269745145
aF-0.05915391953500489
aa(lp181
F0.08137304145285915
aF-0.027870264488447455
aF0.018206126914931575
aa(lp182
F0.391907537085122
aF0.1367713109922015
aF0.2426463846950027
aa(lp183
F0.6934077746923692
aF0.22439676349322374
aF0.22706677730659888
aa(lp184
F1.236629900622376
aF0.26172095157986364
aF0.4581986878411954
aaa(lp185
(lp186
F-0.26006743212002315
aF0.1139005711219199
aF-0.03176909875537359
aa(lp187
F-0.24594075364194473
aF0.12796192486401
aF-0.11261570303141817
aa(lp188
F-0.21201600643238158
aF0.019435364887906186
aF-0.17511594680357737
aa(lp189
F-0.3803939027163722
aF0.0007447897725309099
aF-0.0700244459203257
aa(lp190
F-0.19361936864241364
aF0.044591705421285176
aF-0.1837636814386465
aa(lp191
F0.09725169164441272
aF0.033712590687446684
aF0.04877943994136099
aa(lp192
F0.43301431714641375
aF0.2386442085922333
aF0.2756237726034608
aa(lp193
F0.6140036212300127
aF0.23520014916046822
aF0.20806655295342608
aa(lp194
F1.2914059135389113
aF0.16741442478629245
aF0.3585678943325272
aaa(lp195
(lp196
F-0.18407870132228638
aF0.12336315278316554
aF-0.06299690273256991
aa(lp197
F-0.14732043378258122
aF0.21997322098892927
aF-0.002098428526707571
aa(lp198
F-0.3062951192943419
aF0.09574266480156543
aF-0.08776010536458269
aa(lp199
F-0.18570780381517435
aF0.03762053408496997
aF-0.1214566383366055
aa(lp200
F-0.09136677853989442
aF-0.014241216199655333
aF0.08427841271804279
aa(lp201
F0.18094283486482263
aF0.04486275265178214
aF0.03284555796938057
aa(lp202
F0.37406428189783664
aF0.07632069099138368
aF0.08378299791947931
aa(lp203
F0.5785928844032943
aF0.23674576285019353
aF0.47929805935297937
aa(lp204
F1.2771071030096453
aF0.19328382798354238
aF0.5507660946489693
aaa(lp205
(lp206
F-0.12852925615829477
aF0.10326511046710815
aF0.022113969287449072
aa(lp207
F-0.167343028438734
aF0.11012238087228025
aF0.009618350178017338
aa(lp208
F-0.2060045310236078
aF0.05996973927650174
aF-0.03276485860653651
aa(lp209
F-0.22954907443757844
aF0.08766573817406349
aF-0.12499941240561474
aa(lp210
F0.000667353258660108
aF0.20636238174299984
aF0.1410033851257117
aa(lp211
F0.2767126660461207
aF0.13032451352832214
aF0.11012303642874405
aa(lp212
F0.4295720100790854
aF0.20890625386880488
aF0.2720840450553771
aa(lp213
F0.7374044044260805
aF0.27028174413345
aF0.31272366986181027
aa(lp214
F1.250608231833141
aF0.3585093980996512
aF0.668919907597735
aaa(lp215
(lp216
F-0.18857473325121596
aF0.1963532690326571
aF0.03681398059837746
aa(lp217
F-0.23870415095993952
aF0.15034230793590284
aF-0.010311810262143157
aa(lp218
F-0.22716638159885943
aF0.08084531824037801
aF0.02317967693990226
aa(lp219
F-0.24036240802623493
aF0.11556900937554092
aF0.07553683781847113
aa(lp220
F-0.12179271301443059
aF0.006090120392156182
aF0.32011011544760065
aa(lp221
F0.24272294809421577
aF0.12727795593190647
aF0.1955958728017579
aa(lp222
F0.4968181341872011
aF0.28088515631996563
aF0.3994235837613248
aa(lp223
F0.783751584580348
aF0.2770936790664137
aF0.3967662953417073
aa(lp224
F1.302807312259133
aF0.3289258408285964
aF0.6154742715997805
aaa(lp225
(lp226
F-0.34334777676057093
aF0.14639310056042648
aF-0.1495927502735542
aa(lp227
F-0.5015009637932455
aF0.1484179764057345
aF-0.24286668096530134
aa(lp228
F-0.5473643877445749
aF0.031003301059658116
aF-0.2182945199015642
aa(lp229
F-0.5009873235435145
aF0.13445642400828414
aF-0.2052851656599805
aa(lp230
F-0.15908156124371
aF0.16573963195623717
aF-0.014489249173707367
aa(lp231
F0.38494699924769704
aF0.13947549863614814
aF0.18153000499995883
aa(lp232
F0.6719453474908258
aF0.17615784889638297
aF0.1576430891294398
aa(lp233
F0.7931999315859215
aF0.2625864207242525
aF0.3725736397494519
aa(lp234
F1.2970957258131692
aF0.31107725965889516
aF0.4424290955172143
aaa(lp235
(lp236
F-0.5889413835165167
aF0.11076963073389204
aF-0.32043457660941277
aa(lp237
F-0.589298352023163
aF0.019136248076468798
aF-0.2678324865784443
aa(lp238
F-0.514034619566229
aF-0.02818090573081834
aF-0.17544809576784068
aa(lp239
F-0.5982531703009386
aF-0.07878131221553272
aF-0.47215526130584334
aa(lp240
F-0.4472672092614041
aF-0.06907808405687264
aF-0.343793829251647
aa(lp241
F0.12990765305377538
aF-0.06421069238432892
aF0.01652987878999126
aa(lp242
F0.5723678672723297
aF0.21616059286160064
aF0.11166310966708268
aa(lp243
F0.8305566359887055
aF0.11078502517891274
aF0.20052689186758962
aa(lp244
F1.3164920336667754
aF0.3278275452723213
aF0.6300518270478699
aaa(lp245
(lp246
F-0.5858266505337184
aF-0.049444837982966595
aF-0.46991247474272974
aa(lp247
F-0.4936773952950523
aF0.03075174411635629
aF-0.4008475572019202
aa(lp248
F-0.6071143439707473
aF-0.001662494775404151
aF-0.35111647308407856
aa(lp249
F-0.6581350977184932
aF-0.13896218282509046
aF-0.6042678848170188
aa(lp250
F-0.5192971866156446
aF-0.12818716407189237
aF-0.4668592831986842
aa(lp251
F-0.37613716862425955
aF-0.11760382436213229
aF-0.4563749620371566
aa(lp252
F0.26979900398813006
aF-0.008324208243138327
aF-0.14570673049391036
aa(lp253
F0.7572236959168581
aF0.07884913468460912
aF0.15836739377465245
aa(lp254
F1.277085336546529
aF0.04861505909437149
aF0.13488313596408524
aaa(lp255
(lp256
F-0.7140678198597051
aF-0.16595612555514164
aF-0.6482683527689796
aa(lp257
F-0.740178797939387
aF-0.155845856526395
aF-0.7942511257944661
aa(lp258
F-0.6966871229233621
aF-0.18654959907603771
aF-0.7624881358999253
aa(lp259
F-0.7550223760766276
aF-0.16446249870534088
aF-0.6927173381234158
aa(lp260
F-0.6624236742786922
aF-0.26368838339386313
aF-0.8444988225056208
aa(lp261
F-0.3805665045403787
aF-0.29394262916721203
aF-0.5079509492688281
aa(lp262
F-0.09676331859966461
aF-0.2680647789844657
aF-0.5642356303762661
aa(lp263
F0.3533982206353645
aF-0.08424099043617717
aF-0.2074556568952952
aa(lp264
F1.1680683315225195
aF0.008220106184695236
aF-0.1225491736155647
aaaaa(lp265
(lp266
(lp267
(lp268
F-0.9663871737077774
aF-0.38611721054242143
aF-1.2842464854518165
aF-0.863774302836826
aa(lp269
F-0.9460473393229893
aF-0.5033760192582678
aF-1.7074917132243261
aF-0.8673313045719145
aa(lp270
F-0.8570605417235293
aF-0.6285659588671202
aF-1.7984627543935257
aF-0.7655761744269372
aa(lp271
F-0.9380150360884483
aF-0.5247207513065539
aF-1.3727112584018262
aF-0.9205233405435624
aa(lp272
F-0.96866198208123
aF-0.25252966207946204
aF-1.0335493679898238
aF-1.0059185337332042
aa(lp273
F-0.9994553425658724
aF-0.6051407519744965
aF-1.382945041790944
aF-1.1083090923589416
aa(lp274
F-0.9169495991994303
aF-0.6182554691739298
aF-1.4084676106300411
aF-1.0472950126579033
aa(lp275
F-0.9047030746764531
aF-0.7334627444918933
aF-1.2479988261987247
aF-0.7858149084788391
aa(lp276
F-0.4955865746488263
aF-0.7116932218651171
aF-1.4725715795310321
aF-0.691805883796028
aa(lp277
F0.0064386562155220204
aF-0.8899416738232392
aF-1.53582669551315
aF-0.47799874641553397
aaa(lp278
(lp279
F-0.2547621295631757
aF-0.007956613065397047
aF-0.10928715459261974
aF0.2064810636205023
aa(lp280
F-0.35122929839136025
aF-0.18772339830982318
aF-0.5913059121605999
aF-0.0647404898269523
aa(lp281
F-0.26123113826705263
aF-0.19930485018084024
aF-0.49342214045261745
aF-0.27423486122178825
aa(lp282
F-0.2298590525481437
aF-0.07861537508551417
aF-0.36442040017094346
aF-0.18977961275171132
aa(lp283
F-0.2566829120198417
aF0.1822490382022427
aF0.33190039629097223
aF-0.15965854310882407
aa(lp284
F-0.32407285401392155
aF-0.1592557363577374
aF-0.38785808805420297
aF-0.31256649810281995
aa(lp285
F-0.33176270396891944
aF-0.3294491431632818
aF-0.6166419165913215
aF-0.3148047424937253
aa(lp286
F-0.31548484621992945
aF-0.32263907671210657
aF-0.5692662482155848
aF0.07974393837402631
aa(lp287
F0.11651967763837126
aF-0.34092008061996293
aF-0.6379786796023572
aF0.014771556183919286
aa(lp288
F0.6226865526204832
aF-0.5029610605568884
aF-1.0550224383479596
aF0.30245512201358093
aaa(lp289
(lp290
F-0.17648118584848158
aF0.13252762312237124
aF0.01816073264048702
aF0.036495530282929275
aa(lp291
F-0.3023718863869398
aF-0.11564124967631284
aF-0.3957002128505802
aF-0.219873778089157
aa(lp292
F-0.30381913578145453
aF-0.1188806878321597
aF-0.448654105031091
aF-0.2478170332382742
aa(lp293
F-0.2519378458775686
aF0.08072338755106717
aF-0.15053662266402668
aF-0.284443788113248
aa(lp294
F-0.18911656817326788
aF0.1348407723506282
aF0.43183570701051294
aF-0.162577726034484
aa(lp295
F-0.3253415518845484
aF-0.07086568244042488
aF-0.26260672669959395
aF-0.2696890779010013
aa(lp296
F-0.34486571641453956
aF-0.19158886856920582
aF-0.3854716315238188
aF-0.2417329232277278
aa(lp297
F-0.1979174798002709
aF-0.2955707237229393
aF-0.2998111373598417
aF0.07575499434945485
aa(lp298
F0.12394945344678088
aF-0.3149519080797625
aF-0.6579388380880075
aF-0.007981815142853841
aa(lp299
F0.6049660640396924
aF-0.5339326943385799
aF-1.0573227583424
aF0.43122119242211976
aaa(lp300
(lp301
F-0.15118187505488026
aF0.16000614431709678
aF0.04413962959397131
aF0.3160481688908621
aa(lp302
F-0.3003185933713445
aF-0.15096969043846561
aF-0.5141912646713902
aF0.030575264620676314
aa(lp303
F-0.20450126503558522
aF-0.18890308992949922
aF-0.30341603651099663
aF-0.13095713833368447
aa(lp304
F-0.2746958890316605
aF0.12275066951831635
aF-0.10808456052932572
aF-0.06627823715512444
aa(lp305
F-0.2334996264058809
aF0.2276566516207414
aF0.5299827368324682
aF-0.1336023355095128
aa(lp306
F-0.23837811069188286
aF-0.20424719275080472
aF-0.06243528712680575
aF-0.19087264414339136
aa(lp307
F-0.2600479075229392
aF-0.22591247124766659
aF-0.3437875590233977
aF0.08218853357583526
aa(lp308
F-0.19717560019254873
aF-0.19400239816850895
aF-0.5758441812053914
aF0.05626125387140008
aa(lp309
F0.1259719396405566
aF-0.32563820194890725
aF-0.5968459090337831
aF0.22662462834673616
aa(lp310
F0.7095449731658753
aF-0.4765413984212922
aF-0.9362345732868177
aF0.4146886524544236
aaa(lp311
(lp312
F-0.17083413168861603
aF0.13108210759492944
aF0.11336423372813213
aF0.22146477586892396
aa(lp313
F-0.14690537805848125
aF-0.05746055287629501
aF-0.27123873426791634
aF0.17000099564482074
aa(lp314
F-0.16757962012606023
aF-0.1231249666987764
aF-0.16569750349747223
aF0.11477841921052793
aa(lp315
F-0.19611427427814987
aF0.15290388067505337
aF-0.03739146931614039
aF-0.12760195647343725
aa(lp316
F-0.10800175457304563
aF0.16753471113364501
aF0.6495235128469506
aF0.04148371742098712
aa(lp317
F-0.26866101773108164
aF-0.08676142346873826
aF-0.1671553205604422
aF-0.16562501220561976
aa(lp318
F-0.19733067173668928
aF-0.23748246742309348
aF-0.28144175761855594
aF-0.2534623819128835
aa(lp319
F-0.1963343113752909
aF-0.24414189935281258
aF-0.5125465296434056
aF0.2786178524450652
aa(lp320
F0.2807801134111571
aF-0.3920044119932333
aF-0.4982008912547819
aF0.07851965745785924
aa(lp321
F0.6138723574505671
aF-0.4782711321278067
aF-0.9304818986829251
aF0.43993516770860824
aaa(lp322
(lp323
F-0.11236584355568804
aF0.1250834648358885
aF0.08238428325150424
aF0.42840476557554996
aa(lp324
F-0.07520844028098228
aF-0.09264075001690404
aF-0.3545903067737667
aF0.05749765544690856
aa(lp325
F-0.0964025260804297
aF-0.08301418195071025
aF-0.20375995938206246
aF0.1052233943160679
aa(lp326
F-0.1847160832724866
aF0.09793994733690703
aF-0.03650968912533302
aF-0.00029928784309786113
aa(lp327
F-0.14055920808893657
aF0.32377647963004347
aF0.6758131199123225
aF0.17607967028240598
aa(lp328
F-0.24806847740833213
aF-0.14795391067935987
aF-0.22866660169189915
aF-0.2411340591515349
aa(lp329
F-0.13475646009594253
aF-0.18780225802887812
aF-0.2695763465404827
aF0.06883622954626077
aa(lp330
F-0.176148690527001
aF-0.19272925326398432
aF-0.27892291589670126
aF0.24576837176659894
aa(lp331
F0.2319500969468797
aF-0.3380390998699035
aF-0.5705135868352157
aF0.26989276048429833
aa(lp332
F0.755239935347011
aF-0.557326143972234
aF-0.9345184391215956
aF0.57240702705482
aaa(lp333
(lp334
F-0.45801871341334155
aF0.2063428940952527
aF-0.14824013012158038
aF-0.002673349458621527
aa(lp335
F-0.3984317952407044
aF-0.029418506914877178
aF-0.9511323473188052
aF-0.13435208122059078
aa(lp336
F-0.4187397660453063
aF-0.17873212327052165
aF-0.8784993875336298
aF-0.05525062354737365
aa(lp337
F-0.4744434447247485
aF0.11975590139571962
aF-0.1783963389814355
aF-0.11365922233380062
aa(lp338
F-0.5173210559513632
aF0.2623463226733663
aF0.1757750364385199
aF0.04862408326945921
aa(lp339
F-0.4626282055964852
aF-0.24965856408698694
aF-0.34157718889100996
aF-0.2359689503306047
aa(lp340
F-0.3906700822026924
aF-0.22493670549129055
aF-0.39871843361638154
aF0.1075132614631706
aa(lp341
F-0.4971592176603885
aF-0.32882743182356794
aF-0.48985670194860365
aF0.1504128079236749
aa(lp342
F0.4182777707265294
aF-0.45360479013098803
aF-0.7811185706121172
aF0.26242515442312775
aa(lp343
F0.7695964686344987
aF-0.6441225159976213
aF-1.1698480530266466
aF0.6115413014369117
aaa(lp344
(lp345
F-0.44090437822576584
aF0.0544951897821838
aF-0.18760784169710917
aF0.21277419516698567
aa(lp346
F-0.5333573772389731
aF-0.0743081362624305
aF-1.0374694580868453
aF-0.2478842331401201
aa(lp347
F-0.4771840396335697
aF-0.33171308920099724
aF-0.7970200614021766
aF-0.09154508648887846
aa(lp348
F-0.4948970843635874
aF-0.01499077402494307
aF-0.4494515949829509
aF-0.3213465509114756
aa(lp349
F-0.5331596344693376
aF0.19284918146970376
aF0.11660716307338646
aF-0.3447295536956399
aa(lp350
F-0.5917777069441411
aF-0.16499028121199444
aF-0.5907688334157329
aF-0.37507964841715347
aa(lp351
F-0.47504529590192107
aF-0.3546365853584526
aF-0.5402725022204353
aF-0.387947221698281
aa(lp352
F-0.545758052156835
aF-0.339881306756845
aF-0.5454050287023737
aF0.039693066645034886
aa(lp353
F0.054832332541289205
aF-0.40076979920734596
aF-0.7382233660086505
aF0.2801699311299822
aa(lp354
F0.7925678738016723
aF-0.614460415744499
aF-1.2185559248222944
aF0.4694730019773126
aaa(lp355
(lp356
F-0.5723010998375465
aF0.017544410410718077
aF-0.48306647029179134
aF-0.0705895365495163
aa(lp357
F-0.4895342349172539
aF-0.28499818949909445
aF-1.0080240740555801
aF-0.3700031962602659
aa(lp358
F-0.5067007220167468
aF-0.2356536023335901
aF-1.061927707668876
aF-0.4325922199819084
aa(lp359
F-0.5026084061357161
aF-0.22457458396005178
aF-0.594295213713615
aF-0.48529667923612585
aa(lp360
F-0.407711682644205
aF0.07769150073343914
aF0.046026407489101764
aF-0.5335925413479388
aa(lp361
F-0.5797733653816228
aF-0.26413671394768795
aF-0.5896650661304156
aF-0.4616813657132161
aa(lp362
F-0.5095691915322319
aF-0.3250803772262358
aF-0.6716042287596922
aF-0.5018295005218402
aa(lp363
F-0.5122770445005176
aF-0.44797354085903485
aF-0.6510798462449768
aF-0.515951269383884
aa(lp364
F-0.23990013778719427
aF-0.48855828134748985
aF-0.9363769178119598
aF-0.051280021846758346
aa(lp365
F0.7671706342315572
aF-0.7073709178226559
aF-1.3131860673873075
aF0.2962088942407882
aaa(lp366
(lp367
F-0.5775066301326162
aF-0.1480452939121424
aF-0.5343128328865978
aF-0.22370829769678757
aa(lp368
F-0.6843806131581325
aF-0.33743729480842716
aF-1.1230669579244443
aF-0.5333946035000331
aa(lp369
F-0.6684957852478693
aF-0.27112420687748334
aF-1.2077712927418738
aF-0.46532284377387423
aa(lp370
F-0.5315519695863566
aF-0.2419660656573866
aF-0.7762950644614193
aF-0.5326039009584908
aa(lp371
F-0.5665096914343211
aF-0.0360332712842847
aF-0.48022244196350333
aF-0.6918592747471575
aa(lp372
F-0.6572831852168519
aF-0.3493708804006771
aF-0.7484408517603557
aF-0.5534923645739598
aa(lp373
F-0.6704498554779014
aF-0.4717115751830774
aF-0.9008595287373076
aF-0.6528691303174986
aa(lp374
F-0.6675919805010218
aF-0.49240020557825726
aF-0.9268916212245584
aF-0.622678540659659
aa(lp375
F-0.2602704197492032
aF-0.5116630413083376
aF-1.0523420228530627
aF-0.4875874183412321
aa(lp376
F0.3722006634008021
aF-0.7317732133039956
aF-1.3914743169661992
aF-0.09220212941277962
aaaaa.